; Function Attrs: mustprogress nounwind uwtable
define hidden noundef ptr @_ZN10oopFactory13new_charArrayEPKcP10JavaThread(ptr noundef %0, ptr noundef %1) local_unnamed_addr #0 align 2 {
  %3 = alloca i8, align 1
  %4 = alloca i8, align 1
  %5 = icmp eq ptr %0, null
  br i1 %5, label %8, label %6

6:                                                ; preds = %2
  call void @llvm.lifetime.start.p0(i64 1, ptr nonnull %3)
  call void @llvm.lifetime.start.p0(i64 1, ptr nonnull %4)
  %7 = call noundef i32 @_ZN4UTF814unicode_lengthEPKcRbS2_(ptr noundef nonnull %0, ptr noundef nonnull align 1 dereferenceable(1) %3, ptr noundef nonnull align 1 dereferenceable(1) %4) #4
  call void @llvm.lifetime.end.p0(i64 1, ptr nonnull %3)
  call void @llvm.lifetime.end.p0(i64 1, ptr nonnull %4)
  br label %8

8:                                                ; preds = %2, %6
  %9 = phi i32 [ %7, %6 ], [ 0, %2 ]
  %10 = load ptr, ptr getelementptr inbounds (i8, ptr @_ZN8Universe17_typeArrayKlassesE, i64 40), align 8
  %11 = call noundef ptr @_ZN14TypeArrayKlass15allocate_commonEibP10JavaThread(ptr noundef nonnull align 8 dereferenceable(220) %10, i32 noundef %9, i1 noundef zeroext true, ptr noundef %1) #4
  %12 = getelementptr inbounds i8, ptr %1, i64 8
  %13 = load ptr, ptr %12, align 8
  %.not = icmp eq ptr %13, null
  br i1 %.not, label %14, label %23

14:                                               ; preds = %8
  %15 = icmp sgt i32 %9, 0
  br i1 %15, label %16, label %23

16:                                               ; preds = %14
  %17 = load i8, ptr @UseCompressedClassPointers, align 1
  %18 = trunc i8 %17 to i1
  %19 = ptrtoint ptr %11 to i64
  %20 = select i1 %18, i64 16, i64 20
  %21 = add nsw i64 %20, %19
  %22 = inttoptr i64 %21 to ptr
  call void @_ZN4UTF818convert_to_unicodeItEEvPKcPT_i(ptr noundef %0, ptr noundef %22, i32 noundef %9) #4
  br label %23

23:                                               ; preds = %14, %16, %8
  %.0 = phi ptr [ null, %8 ], [ %11, %16 ], [ %11, %14 ]
  ret ptr %.0
}